; Function Attrs: nounwind uwtable
define hidden void @zdp_dump_excess(ptr noundef %0, i32 noundef %1, ptr noundef %2, ptr noundef %3) local_unnamed_addr #0 {
  %5 = tail call ptr @proto_tree_get_root(ptr noundef %3) #4
  %6 = tail call i32 @tvb_captured_length_remaining(ptr noundef %0, i32 noundef %1) #4
  %.not = icmp eq i32 %6, 0
  br i1 %.not, label %10, label %7

7:                                                ; preds = %4
  %8 = tail call ptr @tvb_new_subset_remaining(ptr noundef %0, i32 noundef %1) #4
  %9 = tail call i32 @call_data_dissector(ptr noundef %8, ptr noundef %2, ptr noundef %5) #4
  br label %10

10:                                               ; preds = %7, %4
  ret void
}